; Function Attrs: mustprogress uwtable
define void @_ZN17InteractionOfType16sortAngleAtomIdsEv(ptr nocapture noundef nonnull readonly align 8 dereferenceable(104) %0) local_unnamed_addr #1 align 2 {
  %2 = getelementptr inbounds i8, ptr %0, i64 8
  %3 = load ptr, ptr %2, align 8
  %4 = load ptr, ptr %0, align 8
  %5 = ptrtoint ptr %3 to i64
  %6 = ptrtoint ptr %4 to i64
  %7 = sub i64 %5, %6
  %8 = icmp ugt i64 %7, 8
  br i1 %8, label %_ZNK17InteractionOfType2akEv.exit, label %9

9:                                                ; preds = %1
  tail call void @_ZN3gmx8internal13assertHandlerEPKcS2_S2_S2_i(ptr noundef nonnull @.str.16, ptr noundef nonnull @.str.17, ptr noundef nonnull @"__PRETTY_FUNCTION__._ZZNK17InteractionOfType2akEvENK3$_0clEv", ptr noundef nonnull @.str.11, i32 noundef 149) #22
  unreachable

_ZNK17InteractionOfType2akEv.exit:                ; preds = %1
  %10 = getelementptr inbounds i8, ptr %4, i64 8
  %11 = load i32, ptr %10, align 4
  %12 = icmp eq ptr %4, %3
  br i1 %12, label %13, label %_ZNK17InteractionOfType2aiEv.exit

13:                                               ; preds = %_ZNK17InteractionOfType2akEv.exit
  tail call void @_ZN3gmx8internal13assertHandlerEPKcS2_S2_S2_i(ptr noundef nonnull @.str.12, ptr noundef nonnull @.str.13, ptr noundef nonnull @"__PRETTY_FUNCTION__._ZZNK17InteractionOfType2aiEvENK3$_0clEv", ptr noundef nonnull @.str.11, i32 noundef 137) #22
  unreachable

_ZNK17InteractionOfType2aiEv.exit:                ; preds = %_ZNK17InteractionOfType2akEv.exit
  %14 = load i32, ptr %4, align 4
  %15 = icmp slt i32 %11, %14
  br i1 %15, label %16, label %17

16:                                               ; preds = %_ZNK17InteractionOfType2aiEv.exit
  store i32 %11, ptr %4, align 4
  store i32 %14, ptr %10, align 4
  br label %17

17:                                               ; preds = %16, %_ZNK17InteractionOfType2aiEv.exit
  ret void
}